Certificate:
    Data:
        Version: 3 (0x2)
        Serial Number: 1 (0x1)
    Signature Algorithm: sha256WithRSAEncryption
        Issuer: C=CN, ST=GuangDong, L=ShenZhen, O=WHH Company Ltd, OU=DevOps, CN=devops.freedom.org/emailAddress=devops@freedom.org
        Validity
            Not Before: Oct  5 23:42:59 2020 GMT
            Not After : Sep 11 23:42:59 2120 GMT
        Subject: C=CN, ST=GuangDong, O=WHH Company Ltd, OU=DevOps, CN=devops.freedom.org/emailAddress=devops@freedom.org
        Subject Public Key Info:
            Public Key Algorithm: rsaEncryption
                Public-Key: (2048 bit)
                Modulus:
                    00:b5:0c:9a:9d:8e:77:e4:f5:0f:93:36:1e:8b:a5:
                    94:33:c7:b5:2b:e7:f6:26:c1:d0:14:e3:90:0c:75:
                    a9:00:1a:a8:95:62:de:67:8f:c1:70:92:84:cd:eb:
                    6e:05:0d:5a:4a:7b:1b:e1:ee:e9:58:02:34:01:18:
                    86:dd:bc:bd:77:ac:5e:92:25:dc:56:13:81:b1:75:
                    81:ee:02:36:63:4c:c7:1f:4e:84:bd:3f:f6:91:7a:
                    c3:00:2a:90:2a:a9:b5:a3:c0:da:00:2f:16:7f:fa:
                    c3:85:52:09:a3:2d:91:be:6d:28:9f:eb:3f:34:37:
                    c1:6e:0a:a2:dc:0a:0a:ef:c4:e8:2c:2e:76:49:c4:
                    de:fd:77:91:09:7e:fb:ec:00:a3:ab:22:6b:a0:89:
                    29:81:69:12:06:ef:c3:08:d3:12:ff:38:81:56:63:
                    69:4e:fa:cd:c4:44:37:d8:cf:6b:fd:39:56:1c:15:
                    06:8d:51:03:40:f7:dc:48:61:36:85:6a:67:3e:af:
                    ac:66:db:c0:2b:38:98:cd:67:08:e1:c2:b3:32:b2:
                    91:56:ff:8c:e6:c5:84:6e:4d:dc:cb:2e:49:c8:91:
                    60:27:bb:26:b6:a7:42:e2:89:1d:2d:1f:05:6f:46:
                    36:37:80:d5:cb:c4:ac:61:47:b6:1b:8f:16:c5:4f:
                    29:bb
                Exponent: 65537 (0x10001)
        X509v3 extensions:
            X509v3 Basic Constraints: 
                CA:FALSE
            Netscape Comment: 
                OpenSSL Generated Certificate
            X509v3 Subject Key Identifier: 
                86:0B:92:CA:96:46:6C:B4:29:46:6E:E7:6E:A9:FA:2C:0B:E1:03:55
            X509v3 Authority Key Identifier: 
                keyid:4D:A3:FD:D6:76:3C:A6:3A:D0:4A:D0:94:0A:2C:83:2F:27:95:0B:02

    Signature Algorithm: sha256WithRSAEncryption
         8f:fc:fb:d9:9a:f2:10:cd:24:33:fb:c0:de:fb:f2:d9:c9:66:
         ce:28:80:4d:f8:e3:27:4a:85:45:78:e8:f2:4d:2c:16:5b:b9:
         cd:7b:50:72:9b:29:12:33:25:f2:76:21:b1:63:5c:59:57:33:
         34:94:bb:fc:61:a2:a1:b3:21:51:a5:02:ed:83:eb:db:d0:65:
         6f:e9:5c:b0:58:6b:38:10:52:f1:d9:9c:a7:18:27:bb:31:d8:
         78:89:37:19:27:0a:25:c8:68:17:66:4f:7e:65:8e:74:5e:3a:
         91:09:5d:d4:e2:04:ac:7d:6d:da:c1:bc:74:d9:26:65:28:7c:
         75:c4:0a:84:0b:b9:14:00:3f:2d:52:60:98:e9:00:e8:57:f1:
         84:cd:5a:f6:40:88:27:7b:7d:c2:b9:e2:9c:c2:3f:ee:d5:4e:
         cd:ff:fd:b8:46:4c:bc:0c:b3:16:0d:85:9a:ae:45:d5:58:63:
         41:a3:69:3f:5d:d4:94:e0:ca:16:d3:91:09:ff:35:1d:a2:8e:
         a6:c0:8d:83:4d:c4:c8:e2:ba:3c:84:84:9a:41:20:80:89:05:
         a3:be:28:5d:d7:ef:89:6a:96:6a:2e:26:af:b2:d6:e7:29:1b:
         50:03:c2:60:7d:51:5d:89:5b:2b:8f:06:15:f5:9c:62:58:d9:
         1c:a4:f3:f3
-----BEGIN CERTIFICATE-----
MIIEJTCCAw2gAwIBAgIBATANBgkqhkiG9w0BAQsFADCBnzELMAkGA1UEBhMCQ04x
EjAQBgNVBAgMCUd1YW5nRG9uZzERMA8GA1UEBwwIU2hlblpoZW4xGDAWBgNVBAoM
D1dISCBDb21wYW55IEx0ZDEPMA0GA1UECwwGRGV2T3BzMRswGQYDVQQDDBJkZXZv
cHMuZnJlZWRvbS5vcmcxITAfBgkqhkiG9w0BCQEWEmRldm9wc0BmcmVlZG9tLm9y
ZzAgFw0yMDEwMDUyMzQyNTlaGA8yMTIwMDkxMTIzNDI1OVowgYwxCzAJBgNVBAYT
AkNOMRIwEAYDVQQIDAlHdWFuZ0RvbmcxGDAWBgNVBAoMD1dISCBDb21wYW55IEx0
ZDEPMA0GA1UECwwGRGV2T3BzMRswGQYDVQQDDBJkZXZvcHMuZnJlZWRvbS5vcmcx
ITAfBgkqhkiG9w0BCQEWEmRldm9wc0BmcmVlZG9tLm9yZzCCASIwDQYJKoZIhvcN
AQEBBQADggEPADCCAQoCggEBALUMmp2Od+T1D5M2HoullDPHtSvn9ibB0BTjkAx1
qQAaqJVi3mePwXCShM3rbgUNWkp7G+Hu6VgCNAEYht28vXesXpIl3FYTgbF1ge4C
NmNMxx9OhL0/9pF6wwAqkCqptaPA2gAvFn/6w4VSCaMtkb5tKJ/rPzQ3wW4KotwK
Cu/E6CwudknE3v13kQl+++wAo6sia6CJKYFpEgbvwwjTEv84gVZjaU76zcREN9jP
a/05VhwVBo1RA0D33EhhNoVqZz6vrGbbwCs4mM1nCOHCszKykVb/jObFhG5N3Msu
SciRYCe7JranQuKJHS0fBW9GNjeA1cvErGFHthuPFsVPKbsCAwEAAaN7MHkwCQYD
VR0TBAIwADAsBglghkgBhvhCAQ0EHxYdT3BlblNTTCBHZW5lcmF0ZWQgQ2VydGlm
aWNhdGUwHQYDVR0OBBYEFIYLksqWRmy0KUZu526p+iwL4QNVMB8GA1UdIwQYMBaA
FE2j/dZ2PKY60ErQlAosgy8nlQsCMA0GCSqGSIb3DQEBCwUAA4IBAQCP/PvZmvIQ
zSQz+8De+/LZyWbOKIBN+OMnSoVFeOjyTSwWW7nNe1BymykSMyXydiGxY1xZVzM0
lLv8YaKhsyFRpQLtg+vb0GVv6VywWGs4EFLx2ZynGCe7Mdh4iTcZJwolyGgXZk9+
ZY50XjqRCV3U4gSsfW3awbx02SZlKHx1xAqEC7kUAD8tUmCY6QDoV/GEzVr2QIgn
e33CueKcwj/u1U7N//24Rky8DLMWDYWarkXVWGNBo2k/XdSU4MoW05EJ/zUdoo6m
wI2DTcTI4ro8hISaQSCAiQWjvihd1++JapZqLiavstbnKRtQA8JgfVFdiVsrjwYV
9ZxiWNkcpPPz
-----END CERTIFICATE-----
